target datalayout = "e-m:e-p270:32:32-p271:32:32-p272:64:64-i64:64-i128:128-f80:128-n8:16:32:64-S128"
target triple = "x86_64-pc-linux-gnu"

; Function Attrs: mustprogress uwtable
define internal void @_ZN12_GLOBAL__N_140MarshallingTest_TestDoubleRoundTrip_Test8TestBodyEv(ptr noundef nonnull align 8 dereferenceable(16) %0) unnamed_addr #6 align 2 {
  %2 = alloca ptr, align 8
  store ptr %0, ptr %2, align 8, !tbaa !430
  call void @_ZN12_GLOBAL__N_113TestRoundtripIdEEvT_(double noundef 1.000000e-01)
  call void @_ZN12_GLOBAL__N_113TestRoundtripIdEEvT_(double noundef 1.200000e-01)
  call void @_ZN12_GLOBAL__N_113TestRoundtripIdEEvT_(double noundef 1.230000e-01)
  call void @_ZN12_GLOBAL__N_113TestRoundtripIdEEvT_(double noundef 1.234000e-01)
  call void @_ZN12_GLOBAL__N_113TestRoundtripIdEEvT_(double noundef 1.234500e-01)
  call void @_ZN12_GLOBAL__N_113TestRoundtripIdEEvT_(double noundef 1.234560e-01)
  call void @_ZN12_GLOBAL__N_113TestRoundtripIdEEvT_(double noundef 0x3FBF9ADBB8F8DA72)
  call void @_ZN12_GLOBAL__N_113TestRoundtripIdEEvT_(double noundef 0x3FBF9ADD1091C895)
  call void @_ZN12_GLOBAL__N_113TestRoundtripIdEEvT_(double noundef 0x3FBF9ADD3739635F)
  call void @_ZN12_GLOBAL__N_113TestRoundtripIdEEvT_(double noundef 0x3FBF9ADD37A756DF)
  call void @_ZN12_GLOBAL__N_113TestRoundtripIdEEvT_(double noundef 0x3FBF9ADD37BD545E)
  call void @_ZN12_GLOBAL__N_113TestRoundtripIdEEvT_(double noundef 0x3FBF9ADD37C0A0CB)
  call void @_ZN12_GLOBAL__N_113TestRoundtripIdEEvT_(double noundef 0x3FBF9ADD37C11162)
  call void @_ZN12_GLOBAL__N_113TestRoundtripIdEEvT_(double noundef 0x3FBF9ADD37C11F75)
  call void @_ZN12_GLOBAL__N_113TestRoundtripIdEEvT_(double noundef 0x3FBF9ADD37C12126)
  call void @_ZN12_GLOBAL__N_113TestRoundtripIdEEvT_(double noundef 0x3FBF9ADD37C12158)
  call void @_ZN12_GLOBAL__N_113TestRoundtripIdEEvT_(double noundef 0x3FBF9ADD37C1215E)
  call void @_ZN12_GLOBAL__N_113TestRoundtripIdEEvT_(double noundef 0x4A1B5E7E08CA3A8F)
  call void @_ZN12_GLOBAL__N_113TestRoundtripIdEEvT_(double noundef 1.200000e+49)
  call void @_ZN12_GLOBAL__N_113TestRoundtripIdEEvT_(double noundef 1.230000e+49)
  call void @_ZN12_GLOBAL__N_113TestRoundtripIdEEvT_(double noundef 1.234000e+49)
  call void @_ZN12_GLOBAL__N_113TestRoundtripIdEEvT_(double noundef 1.234500e+49)
  call void @_ZN12_GLOBAL__N_113TestRoundtripIdEEvT_(double noundef 1.234560e+49)
  call void @_ZN12_GLOBAL__N_113TestRoundtripIdEEvT_(double noundef 0x4A20E4FDFA7694B9)
  call void @_ZN12_GLOBAL__N_113TestRoundtripIdEEvT_(double noundef 0x4A20E4FEB2225AE0)
  call void @_ZN12_GLOBAL__N_113TestRoundtripIdEEvT_(double noundef 0x4A20E4FEC6CC145E)
  call void @_ZN12_GLOBAL__N_113TestRoundtripIdEEvT_(double noundef 0x4A20E4FEC706DAB2)
  call void @_ZN12_GLOBAL__N_113TestRoundtripIdEEvT_(double noundef 0x4A20E4FEC7129BF6)
  call void @_ZN12_GLOBAL__N_113TestRoundtripIdEEvT_(double noundef 0x4A20E4FEC7145F5A)
  call void @_ZN12_GLOBAL__N_113TestRoundtripIdEEvT_(double noundef 0x4A20E4FEC7149B89)
  call void @_ZN12_GLOBAL__N_113TestRoundtripIdEEvT_(double noundef 0x4A20E4FEC714A30F)
  call void @_ZN12_GLOBAL__N_113TestRoundtripIdEEvT_(double noundef 0x4A20E4FEC714A3F6)
  call void @_ZN12_GLOBAL__N_113TestRoundtripIdEEvT_(double noundef 0x4A20E4FEC714A411)
  call void @_ZN12_GLOBAL__N_113TestRoundtripIdEEvT_(double noundef 0x4A20E4FEC714A414)
  call void @_ZN12_GLOBAL__N_113TestRoundtripIdEEvT_(double noundef 1.000000e-51)
  call void @_ZN12_GLOBAL__N_113TestRoundtripIdEEvT_(double noundef 1.200000e-51)
  call void @_ZN12_GLOBAL__N_113TestRoundtripIdEEvT_(double noundef 1.230000e-51)
  call void @_ZN12_GLOBAL__N_113TestRoundtripIdEEvT_(double noundef 1.234000e-51)
  call void @_ZN12_GLOBAL__N_113TestRoundtripIdEEvT_(double noundef 1.234500e-51)
  call void @_ZN12_GLOBAL__N_113TestRoundtripIdEEvT_(double noundef 1.234560e-51)
  call void @_ZN12_GLOBAL__N_113TestRoundtripIdEEvT_(double noundef 0x355D8FDFAA1F25E9)
  call void @_ZN12_GLOBAL__N_113TestRoundtripIdEEvT_(double noundef 0x355D8FE0EB82603E)
  call void @_ZN12_GLOBAL__N_113TestRoundtripIdEEvT_(double noundef 0x355D8FE10FAA56CE)
  call void @_ZN12_GLOBAL__N_113TestRoundtripIdEEvT_(double noundef 0x355D8FE110112EE1)
  call void @_ZN12_GLOBAL__N_113TestRoundtripIdEEvT_(double noundef 0x355D8FE11025C07E)
  call void @_ZN12_GLOBAL__N_113TestRoundtripIdEEvT_(double noundef 0x355D8FE11028D656)
  call void @_ZN12_GLOBAL__N_113TestRoundtripIdEEvT_(double noundef 0x355D8FE110293FA6)
  call void @_ZN12_GLOBAL__N_113TestRoundtripIdEEvT_(double noundef 0x355D8FE110294CD0)
  call void @_ZN12_GLOBAL__N_113TestRoundtripIdEEvT_(double noundef 0x355D8FE110294E64)
  call void @_ZN12_GLOBAL__N_113TestRoundtripIdEEvT_(double noundef 0x355D8FE110294E94)
  call void @_ZN12_GLOBAL__N_113TestRoundtripIdEEvT_(double noundef 0x355D8FE110294E99)
  ret void
}