; Function Attrs: mustprogress uwtable
define internal void @_ZN12_GLOBAL__N_140MarshallingTest_TestDoubleRoundTrip_Test8TestBodyEv(ptr nonnull readnone align 8 captures(none) %0) unnamed_addr #4 align 2 {
  tail call fastcc void @_ZN12_GLOBAL__N_113TestRoundtripIdEEvT_(double noundef 1.000000e-01)
  tail call fastcc void @_ZN12_GLOBAL__N_113TestRoundtripIdEEvT_(double noundef 1.200000e-01)
  tail call fastcc void @_ZN12_GLOBAL__N_113TestRoundtripIdEEvT_(double noundef 1.230000e-01)
  tail call fastcc void @_ZN12_GLOBAL__N_113TestRoundtripIdEEvT_(double noundef 1.234000e-01)
  tail call fastcc void @_ZN12_GLOBAL__N_113TestRoundtripIdEEvT_(double noundef 1.234500e-01)
  tail call fastcc void @_ZN12_GLOBAL__N_113TestRoundtripIdEEvT_(double noundef 1.234560e-01)
  tail call fastcc void @_ZN12_GLOBAL__N_113TestRoundtripIdEEvT_(double noundef 0x3FBF9ADBB8F8DA72)
  tail call fastcc void @_ZN12_GLOBAL__N_113TestRoundtripIdEEvT_(double noundef 0x3FBF9ADD1091C895)
  tail call fastcc void @_ZN12_GLOBAL__N_113TestRoundtripIdEEvT_(double noundef 0x3FBF9ADD3739635F)
  tail call fastcc void @_ZN12_GLOBAL__N_113TestRoundtripIdEEvT_(double noundef 0x3FBF9ADD37A756DF)
  tail call fastcc void @_ZN12_GLOBAL__N_113TestRoundtripIdEEvT_(double noundef 0x3FBF9ADD37BD545E)
  tail call fastcc void @_ZN12_GLOBAL__N_113TestRoundtripIdEEvT_(double noundef 0x3FBF9ADD37C0A0CB)
  tail call fastcc void @_ZN12_GLOBAL__N_113TestRoundtripIdEEvT_(double noundef 0x3FBF9ADD37C11162)
  tail call fastcc void @_ZN12_GLOBAL__N_113TestRoundtripIdEEvT_(double noundef 0x3FBF9ADD37C11F75)
  tail call fastcc void @_ZN12_GLOBAL__N_113TestRoundtripIdEEvT_(double noundef 0x3FBF9ADD37C12126)
  tail call fastcc void @_ZN12_GLOBAL__N_113TestRoundtripIdEEvT_(double noundef 0x3FBF9ADD37C12158)
  tail call fastcc void @_ZN12_GLOBAL__N_113TestRoundtripIdEEvT_(double noundef 0x3FBF9ADD37C1215E)
  tail call fastcc void @_ZN12_GLOBAL__N_113TestRoundtripIdEEvT_(double noundef 0x4A1B5E7E08CA3A8F)
  tail call fastcc void @_ZN12_GLOBAL__N_113TestRoundtripIdEEvT_(double noundef 1.200000e+49)
  tail call fastcc void @_ZN12_GLOBAL__N_113TestRoundtripIdEEvT_(double noundef 1.230000e+49)
  tail call fastcc void @_ZN12_GLOBAL__N_113TestRoundtripIdEEvT_(double noundef 1.234000e+49)
  tail call fastcc void @_ZN12_GLOBAL__N_113TestRoundtripIdEEvT_(double noundef 1.234500e+49)
  tail call fastcc void @_ZN12_GLOBAL__N_113TestRoundtripIdEEvT_(double noundef 1.234560e+49)
  tail call fastcc void @_ZN12_GLOBAL__N_113TestRoundtripIdEEvT_(double noundef 0x4A20E4FDFA7694B9)
  tail call fastcc void @_ZN12_GLOBAL__N_113TestRoundtripIdEEvT_(double noundef 0x4A20E4FEB2225AE0)
  tail call fastcc void @_ZN12_GLOBAL__N_113TestRoundtripIdEEvT_(double noundef 0x4A20E4FEC6CC145E)
  tail call fastcc void @_ZN12_GLOBAL__N_113TestRoundtripIdEEvT_(double noundef 0x4A20E4FEC706DAB2)
  tail call fastcc void @_ZN12_GLOBAL__N_113TestRoundtripIdEEvT_(double noundef 0x4A20E4FEC7129BF6)
  tail call fastcc void @_ZN12_GLOBAL__N_113TestRoundtripIdEEvT_(double noundef 0x4A20E4FEC7145F5A)
  tail call fastcc void @_ZN12_GLOBAL__N_113TestRoundtripIdEEvT_(double noundef 0x4A20E4FEC7149B89)
  tail call fastcc void @_ZN12_GLOBAL__N_113TestRoundtripIdEEvT_(double noundef 0x4A20E4FEC714A30F)
  tail call fastcc void @_ZN12_GLOBAL__N_113TestRoundtripIdEEvT_(double noundef 0x4A20E4FEC714A3F6)
  tail call fastcc void @_ZN12_GLOBAL__N_113TestRoundtripIdEEvT_(double noundef 0x4A20E4FEC714A411)
  tail call fastcc void @_ZN12_GLOBAL__N_113TestRoundtripIdEEvT_(double noundef 0x4A20E4FEC714A414)
  tail call fastcc void @_ZN12_GLOBAL__N_113TestRoundtripIdEEvT_(double noundef 1.000000e-51)
  tail call fastcc void @_ZN12_GLOBAL__N_113TestRoundtripIdEEvT_(double noundef 1.200000e-51)
  tail call fastcc void @_ZN12_GLOBAL__N_113TestRoundtripIdEEvT_(double noundef 1.230000e-51)
  tail call fastcc void @_ZN12_GLOBAL__N_113TestRoundtripIdEEvT_(double noundef 1.234000e-51)
  tail call fastcc void @_ZN12_GLOBAL__N_113TestRoundtripIdEEvT_(double noundef 1.234500e-51)
  tail call fastcc void @_ZN12_GLOBAL__N_113TestRoundtripIdEEvT_(double noundef 1.234560e-51)
  tail call fastcc void @_ZN12_GLOBAL__N_113TestRoundtripIdEEvT_(double noundef 0x355D8FDFAA1F25E9)
  tail call fastcc void @_ZN12_GLOBAL__N_113TestRoundtripIdEEvT_(double noundef 0x355D8FE0EB82603E)
  tail call fastcc void @_ZN12_GLOBAL__N_113TestRoundtripIdEEvT_(double noundef 0x355D8FE10FAA56CE)
  tail call fastcc void @_ZN12_GLOBAL__N_113TestRoundtripIdEEvT_(double noundef 0x355D8FE110112EE1)
  tail call fastcc void @_ZN12_GLOBAL__N_113TestRoundtripIdEEvT_(double noundef 0x355D8FE11025C07E)
  tail call fastcc void @_ZN12_GLOBAL__N_113TestRoundtripIdEEvT_(double noundef 0x355D8FE11028D656)
  tail call fastcc void @_ZN12_GLOBAL__N_113TestRoundtripIdEEvT_(double noundef 0x355D8FE110293FA6)
  tail call fastcc void @_ZN12_GLOBAL__N_113TestRoundtripIdEEvT_(double noundef 0x355D8FE110294CD0)
  tail call fastcc void @_ZN12_GLOBAL__N_113TestRoundtripIdEEvT_(double noundef 0x355D8FE110294E64)
  tail call fastcc void @_ZN12_GLOBAL__N_113TestRoundtripIdEEvT_(double noundef 0x355D8FE110294E94)
  tail call fastcc void @_ZN12_GLOBAL__N_113TestRoundtripIdEEvT_(double noundef 0x355D8FE110294E99)
  ret void
}